target datalayout = "e-m:e-p270:32:32-p271:32:32-p272:64:64-i64:64-i128:128-f80:128-n8:16:32:64-S128"
target triple = "x86_64-pc-linux-gnu"

%struct._zend_executor_globals = type { %struct._zval_struct, %struct._zval_struct, [32 x ptr], ptr, ptr, %struct._zend_array, %struct._zend_array, ptr, i32, i32, ptr, ptr, ptr, ptr, ptr, ptr, i64, ptr, ptr, i32, i32, i64, i32, i32, i32, i8, i8, %struct.zend_atomic_bool_s, %struct.zend_atomic_bool_s, ptr, i64, ptr, ptr, %struct._zend_array, %struct._zend_array, i32, i8, %struct._zval_struct, %struct._zval_struct, %struct._zend_stack, %struct._zend_stack, %struct._zend_stack, ptr, i32, i32, i64, ptr, ptr, ptr, %struct._zend_objects_store, ptr, ptr, ptr, [3 x %struct._zend_op], ptr, i8, i8, i64, i32, i32, ptr, [16 x %struct._HashTableIterator], ptr, %union._zend_function, %struct._zend_op, %struct._zend_array, i64, %struct.zend_get_gc_buffer, ptr, ptr, ptr, i64, i8, i32, ptr, ptr, i64, %struct._zend_call_stack, i64, i64, [6 x ptr] }
%struct.zend_atomic_bool_s = type { i8 }
%struct._zval_struct = type { %union._zend_value, %union.anon, %union.anon.2 }
%union._zend_value = type { i64 }
%union.anon = type { i32 }
%union.anon.2 = type { i32 }
%struct._zend_stack = type { i32, i32, i32, ptr }
%struct._zend_objects_store = type { ptr, i32, i32, i32 }
%struct._HashTableIterator = type { ptr, i32, i32 }
%union._zend_function = type { %struct._zend_op_array }
%struct._zend_op_array = type { i8, [3 x i8], i32, ptr, ptr, ptr, i32, i32, ptr, ptr, ptr, ptr, i32, i32, i32, i32, ptr, ptr, ptr, ptr, ptr, i32, i32, ptr, ptr, ptr, i32, i32, i32, i32, ptr, ptr, [6 x ptr] }
%struct._zend_op = type { ptr, %union._znode_op, %union._znode_op, %union._znode_op, i32, i32, i8, i8, i8, i8 }
%union._znode_op = type { i32 }
%struct._zend_array = type { %struct._zend_refcounted_h, %union.anon.4, i32, %union.anon.6, i32, i32, i32, i32, i64, ptr }
%struct._zend_refcounted_h = type { i32, %union.anon.3 }
%union.anon.3 = type { i32 }
%union.anon.4 = type { i32 }
%union.anon.6 = type { ptr }
%struct.zend_get_gc_buffer = type { ptr, ptr, ptr }
%struct._zend_call_stack = type { ptr, i64 }
%struct._zend_string = type { %struct._zend_refcounted_h, i64, i64, [1 x i8] }
%struct._dom_object = type { ptr, ptr, ptr, %struct._zend_object }
%struct._zend_object = type { %struct._zend_refcounted_h, i32, ptr, ptr, ptr, [1 x %struct._zval_struct] }
%struct._zend_execute_data = type { ptr, ptr, ptr, ptr, %struct._zval_struct, ptr, ptr, ptr, ptr }
%struct._zend_class_entry = type { i8, ptr, %union.anon.8, i32, i32, i32, i32, ptr, ptr, ptr, %struct._zend_array, %struct._zend_array, %struct._zend_array, ptr, ptr, ptr, ptr, ptr, ptr, ptr, ptr, ptr, ptr, ptr, ptr, ptr, ptr, ptr, ptr, ptr, ptr, ptr, %union.anon.9, ptr, ptr, ptr, ptr, i32, i32, %union.anon.10, ptr, ptr, ptr, ptr, i32, ptr, ptr, %union.anon.11 }
%union.anon.8 = type { ptr }
%union.anon.9 = type { ptr }
%union.anon.10 = type { ptr }
%union.anon.11 = type { %struct.anon.12 }
%struct.anon.12 = type { ptr, i32, i32 }

@executor_globals = external global %struct._zend_executor_globals, align 8
@.str.2 = private unnamed_addr constant [18 x i8] c"Couldn't fetch %s\00", align 1
@dom_node_class_entry = external global ptr, align 8
@.str.34 = private unnamed_addr constant [4 x i8] c"CC!\00", align 1
@.str.35 = private unnamed_addr constant [30 x i8] c"must not be an abstract class\00", align 1
@.str.36 = private unnamed_addr constant [55 x i8] c"must be a class name derived from %s or null, %s given\00", align 1

; Function Attrs: nounwind uwtable
define internal ptr @php_dom_obj_from_obj(ptr noundef %0) #0 {
  %2 = alloca ptr, align 8
  store ptr %0, ptr %2, align 8
  %3 = load ptr, ptr %2, align 8
  %4 = getelementptr inbounds i8, ptr %3, i64 -24
  ret ptr %4
}

; Function Attrs: nounwind uwtable
define hidden void @zim_DOM_Document_registerNodeClass(ptr noundef %0, ptr noundef %1) #0 {
  %3 = alloca ptr, align 8
  %4 = alloca ptr, align 8
  %5 = alloca ptr, align 8
  %6 = alloca ptr, align 8
  %7 = alloca ptr, align 8
  %8 = alloca ptr, align 8
  %9 = alloca ptr, align 8
  store ptr %0, ptr %5, align 8
  store ptr %1, ptr %6, align 8
  %10 = load ptr, ptr @dom_node_class_entry, align 8
  store ptr %10, ptr %7, align 8
  store ptr null, ptr %8, align 8
  %11 = load ptr, ptr %5, align 8
  %12 = getelementptr inbounds %struct._zend_execute_data, ptr %11, i32 0, i32 4
  %13 = getelementptr inbounds %struct._zval_struct, ptr %12, i32 0, i32 2
  %14 = load i32, ptr %13, align 4
  %15 = call i32 (i32, ptr, ...) @zend_parse_parameters(i32 noundef %14, ptr noundef @.str.34, ptr noundef %7, ptr noundef %8)
  %16 = icmp eq i32 %15, -1
  br i1 %16, label %17, label %22

17:                                               ; preds = %2
  br label %18

18:                                               ; preds = %17
  %19 = load ptr, ptr getelementptr inbounds (%struct._zend_executor_globals, ptr @executor_globals, i32 0, i32 50), align 8
  %20 = icmp ne ptr %19, null
  call void @llvm.assume(i1 %20)
  br label %120

21:                                               ; No predecessors!
  br label %22

22:                                               ; preds = %21, %2
  %23 = load ptr, ptr %7, align 8
  %24 = getelementptr inbounds %struct._zend_class_entry, ptr %23, i32 0, i32 4
  %25 = load i32, ptr %24, align 4
  %26 = and i32 %25, 64
  %27 = icmp ne i32 %26, 0
  br i1 %27, label %28, label %33

28:                                               ; preds = %22
  call void (i32, ptr, ...) @zend_argument_value_error(i32 noundef 1, ptr noundef @.str.35)
  br label %29

29:                                               ; preds = %28
  %30 = load ptr, ptr getelementptr inbounds (%struct._zend_executor_globals, ptr @executor_globals, i32 0, i32 50), align 8
  %31 = icmp ne ptr %30, null
  call void @llvm.assume(i1 %31)
  br label %120

32:                                               ; No predecessors!
  br label %33

33:                                               ; preds = %32, %22
  %34 = load ptr, ptr %8, align 8
  %35 = icmp eq ptr %34, null
  br i1 %35, label %48, label %36

36:                                               ; preds = %33
  %37 = load ptr, ptr %8, align 8
  %38 = load ptr, ptr %7, align 8
  store ptr %37, ptr %3, align 8
  store ptr %38, ptr %4, align 8
  %39 = load ptr, ptr %3, align 8
  %40 = load ptr, ptr %4, align 8
  %41 = icmp eq ptr %39, %40
  br i1 %41, label %46, label %42

42:                                               ; preds = %36
  %43 = load ptr, ptr %3, align 8
  %44 = load ptr, ptr %4, align 8
  %45 = call zeroext i1 @instanceof_function_slow(ptr noundef %43, ptr noundef %44) #10
  br label %46

46:                                               ; preds = %42, %36
  %47 = phi i1 [ true, %36 ], [ %45, %42 ]
  br i1 %47, label %48, label %109

48:                                               ; preds = %46, %33
  %49 = load ptr, ptr %8, align 8
  %50 = icmp ne ptr %49, null
  br i1 %50, label %51, label %57

51:                                               ; preds = %48
  %52 = load ptr, ptr %8, align 8
  %53 = getelementptr inbounds %struct._zend_class_entry, ptr %52, i32 0, i32 4
  %54 = load i32, ptr %53, align 4
  %55 = and i32 %54, 64
  %56 = icmp ne i32 %55, 0
  br label %57

57:                                               ; preds = %51, %48
  %58 = phi i1 [ false, %48 ], [ %56, %51 ]
  %59 = xor i1 %58, true
  %60 = xor i1 %59, true
  %61 = zext i1 %60 to i32
  %62 = sext i32 %61 to i64
  %63 = icmp ne i64 %62, 0
  br i1 %63, label %64, label %69

64:                                               ; preds = %57
  call void (i32, ptr, ...) @zend_argument_value_error(i32 noundef 2, ptr noundef @.str.35)
  br label %65

65:                                               ; preds = %64
  %66 = load ptr, ptr getelementptr inbounds (%struct._zend_executor_globals, ptr @executor_globals, i32 0, i32 50), align 8
  %67 = icmp ne ptr %66, null
  call void @llvm.assume(i1 %67)
  br label %120

68:                                               ; No predecessors!
  br label %69

69:                                               ; preds = %68, %57
  %70 = load ptr, ptr %5, align 8
  %71 = getelementptr inbounds %struct._zend_execute_data, ptr %70, i32 0, i32 4
  %72 = getelementptr inbounds %struct._zval_struct, ptr %71, i32 0, i32 0
  %73 = load ptr, ptr %72, align 8
  %74 = call ptr @php_dom_obj_from_obj(ptr noundef %73)
  store ptr %74, ptr %9, align 8
  %75 = load ptr, ptr %9, align 8
  %76 = getelementptr inbounds %struct._dom_object, ptr %75, i32 0, i32 0
  %77 = load ptr, ptr %76, align 8
  %78 = icmp eq ptr %77, null
  %79 = xor i1 %78, true
  %80 = xor i1 %79, true
  %81 = zext i1 %80 to i32
  %82 = sext i32 %81 to i64
  %83 = icmp ne i64 %82, 0
  br i1 %83, label %84, label %97

84:                                               ; preds = %69
  %85 = load ptr, ptr %9, align 8
  %86 = getelementptr inbounds %struct._dom_object, ptr %85, i32 0, i32 3
  %87 = getelementptr inbounds %struct._zend_object, ptr %86, i32 0, i32 2
  %88 = load ptr, ptr %87, align 8
  %89 = getelementptr inbounds %struct._zend_class_entry, ptr %88, i32 0, i32 1
  %90 = load ptr, ptr %89, align 8
  %91 = getelementptr inbounds %struct._zend_string, ptr %90, i32 0, i32 3
  %92 = getelementptr inbounds [1 x i8], ptr %91, i64 0, i64 0
  call void (ptr, ptr, ...) @zend_throw_error(ptr noundef null, ptr noundef @.str.2, ptr noundef %92)
  br label %93

93:                                               ; preds = %84
  %94 = load ptr, ptr getelementptr inbounds (%struct._zend_executor_globals, ptr @executor_globals, i32 0, i32 50), align 8
  %95 = icmp ne ptr %94, null
  call void @llvm.assume(i1 %95)
  br label %120

96:                                               ; No predecessors!
  br label %97

97:                                               ; preds = %96, %69
  %98 = load ptr, ptr %9, align 8
  %99 = getelementptr inbounds %struct._dom_object, ptr %98, i32 0, i32 1
  %100 = load ptr, ptr %99, align 8
  %101 = load ptr, ptr %7, align 8
  %102 = load ptr, ptr %8, align 8
  call void @dom_set_doc_classmap(ptr noundef %100, ptr noundef %101, ptr noundef %102)
  br label %103

103:                                              ; preds = %97
  br label %104

104:                                              ; preds = %103
  %105 = load ptr, ptr %6, align 8
  %106 = getelementptr inbounds %struct._zval_struct, ptr %105, i32 0, i32 1
  store i32 3, ptr %106, align 8
  br label %107

107:                                              ; preds = %104
  br label %120

108:                                              ; No predecessors!
  br label %109

109:                                              ; preds = %108, %46
  %110 = load ptr, ptr %7, align 8
  %111 = getelementptr inbounds %struct._zend_class_entry, ptr %110, i32 0, i32 1
  %112 = load ptr, ptr %111, align 8
  %113 = getelementptr inbounds %struct._zend_string, ptr %112, i32 0, i32 3
  %114 = getelementptr inbounds [1 x i8], ptr %113, i64 0, i64 0
  %115 = load ptr, ptr %8, align 8
  %116 = getelementptr inbounds %struct._zend_class_entry, ptr %115, i32 0, i32 1
  %117 = load ptr, ptr %116, align 8
  %118 = getelementptr inbounds %struct._zend_string, ptr %117, i32 0, i32 3
  %119 = getelementptr inbounds [1 x i8], ptr %118, i64 0, i64 0
  call void (ptr, i32, ptr, ...) @zend_argument_error(ptr noundef null, i32 noundef 2, ptr noundef @.str.36, ptr noundef %114, ptr noundef %119)
  br label %120

120:                                              ; preds = %109, %107, %93, %65, %29, %18
  ret void
}