; Function Attrs: nounwind uwtable
define hidden void @zim_DOM_Document_registerNodeClass(ptr nocapture noundef readonly %0, ptr nocapture noundef writeonly %1) local_unnamed_addr #0 {
  %3 = alloca ptr, align 8
  %4 = alloca ptr, align 8
  %5 = load ptr, ptr @dom_node_class_entry, align 8
  store ptr %5, ptr %3, align 8
  store ptr null, ptr %4, align 8
  %6 = getelementptr inbounds i8, ptr %0, i64 32
  %7 = getelementptr inbounds i8, ptr %0, i64 44
  %8 = load i32, ptr %7, align 4
  %9 = call i32 (i32, ptr, ...) @zend_parse_parameters(i32 noundef %8, ptr noundef nonnull @.str.34, ptr noundef nonnull %3, ptr noundef nonnull %4) #10
  %10 = icmp eq i32 %9, -1
  br i1 %10, label %11, label %14

11:                                               ; preds = %2
  %12 = load ptr, ptr getelementptr inbounds (%struct._zend_executor_globals, ptr @executor_globals, i64 0, i32 50), align 8
  %13 = icmp ne ptr %12, null
  call void @llvm.assume(i1 %13)
  br label %62

14:                                               ; preds = %2
  %15 = load ptr, ptr %3, align 8
  %16 = getelementptr inbounds i8, ptr %15, i64 28
  %17 = load i32, ptr %16, align 4
  %18 = and i32 %17, 64
  %.not = icmp eq i32 %18, 0
  br i1 %.not, label %22, label %19

19:                                               ; preds = %14
  call void (i32, ptr, ...) @zend_argument_value_error(i32 noundef 1, ptr noundef nonnull @.str.35) #10
  %20 = load ptr, ptr getelementptr inbounds (%struct._zend_executor_globals, ptr @executor_globals, i64 0, i32 50), align 8
  %21 = icmp ne ptr %20, null
  call void @llvm.assume(i1 %21)
  br label %62

22:                                               ; preds = %14
  %23 = load ptr, ptr %4, align 8
  %24 = icmp eq ptr %23, null
  %25 = icmp eq ptr %23, %15
  %or.cond = or i1 %24, %25
  br i1 %or.cond, label %.critedge, label %26

26:                                               ; preds = %22
  %27 = call zeroext i1 @instanceof_function_slow(ptr noundef nonnull %23, ptr noundef nonnull %15) #10
  br i1 %27, label %.critedgethread-pre-split, label %53

.critedgethread-pre-split:                        ; preds = %26
  %.pr = load ptr, ptr %4, align 8
  br label %.critedge

.critedge:                                        ; preds = %.critedgethread-pre-split, %22
  %28 = phi ptr [ %.pr, %.critedgethread-pre-split ], [ %23, %22 ]
  %.not12 = icmp eq ptr %28, null
  br i1 %.not12, label %.critedge14, label %29

29:                                               ; preds = %.critedge
  %30 = getelementptr inbounds i8, ptr %28, i64 28
  %31 = load i32, ptr %30, align 4
  %32 = and i32 %31, 64
  %.not15 = icmp eq i32 %32, 0
  br i1 %.not15, label %.critedge14, label %33

33:                                               ; preds = %29
  call void (i32, ptr, ...) @zend_argument_value_error(i32 noundef 2, ptr noundef nonnull @.str.35) #10
  %34 = load ptr, ptr getelementptr inbounds (%struct._zend_executor_globals, ptr @executor_globals, i64 0, i32 50), align 8
  %35 = icmp ne ptr %34, null
  call void @llvm.assume(i1 %35)
  br label %62

.critedge14:                                      ; preds = %.critedge, %29
  %36 = load ptr, ptr %6, align 8
  %37 = getelementptr inbounds i8, ptr %36, i64 -24
  %38 = load ptr, ptr %37, align 8
  %39 = icmp eq ptr %38, null
  br i1 %39, label %40, label %48

40:                                               ; preds = %.critedge14
  %41 = getelementptr inbounds i8, ptr %36, i64 16
  %42 = load ptr, ptr %41, align 8
  %43 = getelementptr inbounds i8, ptr %42, i64 8
  %44 = load ptr, ptr %43, align 8
  %45 = getelementptr inbounds i8, ptr %44, i64 24
  call void (ptr, ptr, ...) @zend_throw_error(ptr noundef null, ptr noundef nonnull @.str.2, ptr noundef nonnull %45) #10
  %46 = load ptr, ptr getelementptr inbounds (%struct._zend_executor_globals, ptr @executor_globals, i64 0, i32 50), align 8
  %47 = icmp ne ptr %46, null
  call void @llvm.assume(i1 %47)
  br label %62

48:                                               ; preds = %.critedge14
  %49 = getelementptr inbounds i8, ptr %36, i64 -16
  %50 = load ptr, ptr %49, align 8
  %51 = load ptr, ptr %3, align 8
  call void @dom_set_doc_classmap(ptr noundef %50, ptr noundef %51, ptr noundef %28) #10
  %52 = getelementptr inbounds i8, ptr %1, i64 8
  store i32 3, ptr %52, align 8
  br label %62

53:                                               ; preds = %26
  %54 = load ptr, ptr %3, align 8
  %55 = getelementptr inbounds i8, ptr %54, i64 8
  %56 = load ptr, ptr %55, align 8
  %57 = getelementptr inbounds i8, ptr %56, i64 24
  %58 = load ptr, ptr %4, align 8
  %59 = getelementptr inbounds i8, ptr %58, i64 8
  %60 = load ptr, ptr %59, align 8
  %61 = getelementptr inbounds i8, ptr %60, i64 24
  call void (ptr, i32, ptr, ...) @zend_argument_error(ptr noundef null, i32 noundef 2, ptr noundef nonnull @.str.36, ptr noundef nonnull %57, ptr noundef nonnull %61) #10
  br label %62

62:                                               ; preds = %53, %48, %40, %33, %19, %11
  ret void
}